; Function Attrs: mustprogress nofree norecurse nosync nounwind willreturn memory(argmem: read) uwtable
define noundef zeroext i1 @lv_menu_back_button_is_root(ptr nocapture noundef readonly %0, ptr noundef readnone %1) local_unnamed_addr #2 {
  %3 = getelementptr inbounds nuw i8, ptr %0, i64 136
  %4 = load ptr, ptr %3, align 8, !tbaa !30
  %5 = icmp eq ptr %1, %4
  br i1 %5, label %15, label %6

6:                                                ; preds = %2
  %7 = getelementptr inbounds nuw i8, ptr %0, i64 96
  %8 = load ptr, ptr %7, align 8, !tbaa !17
  %9 = icmp eq ptr %1, %8
  br i1 %9, label %10, label %14

10:                                               ; preds = %6
  %11 = getelementptr inbounds nuw i8, ptr %0, i64 185
  %12 = load i8, ptr %11, align 1, !tbaa !13
  %13 = icmp ult i8 %12, 2
  br i1 %13, label %15, label %14

14:                                               ; preds = %10, %6
  br label %15

15:                                               ; preds = %10, %2, %14
  %.0 = phi i1 [ false, %14 ], [ true, %2 ], [ true, %10 ]
  ret i1 %.0
}